target datalayout = "e-m:e-p270:32:32-p271:32:32-p272:64:64-i64:64-i128:128-f80:128-n8:16:32:64-S128"
target triple = "x86_64-pc-linux-gnu"

%struct.lean_object = type { i32, i32 }
%struct.lean_string_object = type { %struct.lean_object, i64, i64, i64, [0 x i8] }
%struct.lean_ctor_object = type { %struct.lean_object, [0 x ptr] }

; Function Attrs: inlinehint nounwind uwtable
define internal ptr @lean_to_string(ptr noundef %0) #0 {
  %2 = alloca ptr, align 8
  store ptr %0, ptr %2, align 8, !tbaa !4
  %3 = load ptr, ptr %2, align 8, !tbaa !4
  ret ptr %3
}

; Function Attrs: inlinehint nounwind uwtable
define internal i64 @lean_string_size(ptr noundef %0) #0 {
  %2 = alloca ptr, align 8
  store ptr %0, ptr %2, align 8, !tbaa !4
  %3 = load ptr, ptr %2, align 8, !tbaa !4
  %4 = call ptr @lean_to_string(ptr noundef %3)
  %5 = getelementptr inbounds nuw %struct.lean_string_object, ptr %4, i32 0, i32 1
  %6 = load i64, ptr %5, align 8, !tbaa !8
  ret i64 %6
}

; Function Attrs: inlinehint nounwind uwtable
define internal ptr @lean_to_ctor(ptr noundef %0) #0 {
  %2 = alloca ptr, align 8
  store ptr %0, ptr %2, align 8, !tbaa !4
  %3 = load ptr, ptr %2, align 8, !tbaa !4
  ret ptr %3
}

; Function Attrs: inlinehint nounwind uwtable
define internal zeroext i1 @lean_string_eq(ptr noundef %0, ptr noundef %1) #0 {
  %3 = alloca ptr, align 8
  %4 = alloca ptr, align 8
  store ptr %0, ptr %3, align 8, !tbaa !4
  store ptr %1, ptr %4, align 8, !tbaa !4
  %5 = load ptr, ptr %3, align 8, !tbaa !4
  %6 = load ptr, ptr %4, align 8, !tbaa !4
  %7 = icmp eq ptr %5, %6
  br i1 %7, label %20, label %8

8:                                                ; preds = %2
  %9 = load ptr, ptr %3, align 8, !tbaa !4
  %10 = call i64 @lean_string_size(ptr noundef %9)
  %11 = load ptr, ptr %4, align 8, !tbaa !4
  %12 = call i64 @lean_string_size(ptr noundef %11)
  %13 = icmp eq i64 %10, %12
  br i1 %13, label %14, label %18

14:                                               ; preds = %8
  %15 = load ptr, ptr %3, align 8, !tbaa !4
  %16 = load ptr, ptr %4, align 8, !tbaa !4
  %17 = call zeroext i1 @lean_string_eq_cold(ptr noundef %15, ptr noundef %16)
  br label %18

18:                                               ; preds = %14, %8
  %19 = phi i1 [ false, %8 ], [ %17, %14 ]
  br label %20

20:                                               ; preds = %18, %2
  %21 = phi i1 [ true, %2 ], [ %19, %18 ]
  ret i1 %21
}

; Function Attrs: inlinehint nounwind uwtable
define internal ptr @lean_ctor_obj_cptr(ptr noundef %0) #0 {
  %2 = alloca ptr, align 8
  store ptr %0, ptr %2, align 8, !tbaa !4
  %3 = load ptr, ptr %2, align 8, !tbaa !4
  %4 = call ptr @lean_to_ctor(ptr noundef %3)
  %5 = getelementptr inbounds nuw %struct.lean_ctor_object, ptr %4, i32 0, i32 1
  %6 = getelementptr inbounds [0 x ptr], ptr %5, i64 0, i64 0
  ret ptr %6
}

; Function Attrs: inlinehint nounwind uwtable
define internal zeroext i8 @lean_ptr_tag(ptr noundef %0) #0 {
  %2 = alloca ptr, align 8
  store ptr %0, ptr %2, align 8, !tbaa !4
  %3 = load ptr, ptr %2, align 8, !tbaa !4
  %4 = getelementptr inbounds nuw %struct.lean_object, ptr %3, i32 0, i32 1
  %5 = load i32, ptr %4, align 4
  %6 = lshr i32 %5, 24
  %7 = trunc i32 %6 to i8
  ret i8 %7
}

; Function Attrs: inlinehint nounwind uwtable
define internal i64 @lean_unbox(ptr noundef %0) #0 {
  %2 = alloca ptr, align 8
  store ptr %0, ptr %2, align 8, !tbaa !4
  %3 = load ptr, ptr %2, align 8, !tbaa !4
  %4 = ptrtoint ptr %3 to i64
  %5 = lshr i64 %4, 1
  ret i64 %5
}

; Function Attrs: alwaysinline nounwind uwtable
define internal zeroext i1 @lean_is_scalar(ptr noundef %0) #1 {
  %2 = alloca ptr, align 8
  store ptr %0, ptr %2, align 8, !tbaa !4
  %3 = load ptr, ptr %2, align 8, !tbaa !4
  %4 = ptrtoint ptr %3 to i64
  %5 = and i64 %4, 1
  %6 = icmp eq i64 %5, 1
  ret i1 %6
}

; Function Attrs: inlinehint nounwind uwtable
define internal zeroext i8 @lean_string_dec_eq(ptr noundef %0, ptr noundef %1) #0 {
  %3 = alloca ptr, align 8
  %4 = alloca ptr, align 8
  store ptr %0, ptr %3, align 8, !tbaa !4
  store ptr %1, ptr %4, align 8, !tbaa !4
  %5 = load ptr, ptr %3, align 8, !tbaa !4
  %6 = load ptr, ptr %4, align 8, !tbaa !4
  %7 = call zeroext i1 @lean_string_eq(ptr noundef %5, ptr noundef %6)
  %8 = zext i1 %7 to i8
  ret i8 %8
}

; Function Attrs: inlinehint nounwind uwtable
define internal zeroext i8 @lean_string_dec_lt(ptr noundef %0, ptr noundef %1) #0 {
  %3 = alloca ptr, align 8
  %4 = alloca ptr, align 8
  store ptr %0, ptr %3, align 8, !tbaa !4
  store ptr %1, ptr %4, align 8, !tbaa !4
  %5 = load ptr, ptr %3, align 8, !tbaa !4
  %6 = load ptr, ptr %4, align 8, !tbaa !4
  %7 = call zeroext i1 @lean_string_lt(ptr noundef %5, ptr noundef %6)
  %8 = zext i1 %7 to i8
  ret i8 %8
}

; Function Attrs: inlinehint nounwind uwtable
define internal ptr @lean_ctor_get(ptr noundef %0, i32 noundef %1) #0 {
  %3 = alloca ptr, align 8
  %4 = alloca i32, align 4
  store ptr %0, ptr %3, align 8, !tbaa !4
  store i32 %1, ptr %4, align 4, !tbaa !13
  %5 = load ptr, ptr %3, align 8, !tbaa !4
  %6 = call ptr @lean_ctor_obj_cptr(ptr noundef %5)
  %7 = load i32, ptr %4, align 4, !tbaa !13
  %8 = zext i32 %7 to i64
  %9 = getelementptr inbounds nuw ptr, ptr %6, i64 %8
  %10 = load ptr, ptr %9, align 8, !tbaa !4
  ret ptr %10
}

; Function Attrs: inlinehint nounwind uwtable
define internal i32 @lean_obj_tag(ptr noundef %0) #0 {
  %2 = alloca i32, align 4
  %3 = alloca ptr, align 8
  store ptr %0, ptr %3, align 8, !tbaa !4
  %4 = load ptr, ptr %3, align 8, !tbaa !4
  %5 = call zeroext i1 @lean_is_scalar(ptr noundef %4)
  br i1 %5, label %6, label %10

6:                                                ; preds = %1
  %7 = load ptr, ptr %3, align 8, !tbaa !4
  %8 = call i64 @lean_unbox(ptr noundef %7)
  %9 = trunc i64 %8 to i32
  store i32 %9, ptr %2, align 4
  br label %14

10:                                               ; preds = %1
  %11 = load ptr, ptr %3, align 8, !tbaa !4
  %12 = call zeroext i8 @lean_ptr_tag(ptr noundef %11)
  %13 = zext i8 %12 to i32
  store i32 %13, ptr %2, align 4
  br label %14

14:                                               ; preds = %10, %6
  %15 = load i32, ptr %2, align 4
  ret i32 %15
}

; Function Attrs: nounwind uwtable
define zeroext i8 @l___private_Lean_Data_Lsp_Internal_0__Lean_Lsp_ordRefIdent____x40_Lean_Data_Lsp_Internal___hyg_232_(ptr noundef %0, ptr noundef %1) #2 {
  %3 = alloca i8, align 1
  %4 = alloca ptr, align 8
  %5 = alloca ptr, align 8
  %6 = alloca ptr, align 8
  %7 = alloca ptr, align 8
  %8 = alloca ptr, align 8
  %9 = alloca ptr, align 8
  %10 = alloca i8, align 1
  %11 = alloca i8, align 1
  %12 = alloca i8, align 1
  %13 = alloca i32, align 4
  %14 = alloca i8, align 1
  %15 = alloca i8, align 1
  %16 = alloca i8, align 1
  %17 = alloca i8, align 1
  %18 = alloca i8, align 1
  %19 = alloca i8, align 1
  %20 = alloca i8, align 1
  %21 = alloca i8, align 1
  %22 = alloca ptr, align 8
  %23 = alloca ptr, align 8
  %24 = alloca ptr, align 8
  %25 = alloca ptr, align 8
  %26 = alloca i8, align 1
  %27 = alloca i8, align 1
  %28 = alloca i8, align 1
  %29 = alloca i8, align 1
  %30 = alloca i8, align 1
  %31 = alloca i8, align 1
  %32 = alloca i8, align 1
  %33 = alloca i8, align 1
  %34 = alloca i8, align 1
  store ptr %0, ptr %4, align 8, !tbaa !4
  store ptr %1, ptr %5, align 8, !tbaa !4
  br label %35

35:                                               ; preds = %2
  %36 = load ptr, ptr %4, align 8, !tbaa !4
  %37 = call i32 @lean_obj_tag(ptr noundef %36)
  %38 = icmp eq i32 %37, 0
  br i1 %38, label %39, label %95

39:                                               ; preds = %35
  %40 = load ptr, ptr %5, align 8, !tbaa !4
  %41 = call i32 @lean_obj_tag(ptr noundef %40)
  %42 = icmp eq i32 %41, 0
  br i1 %42, label %43, label %93

43:                                               ; preds = %39
  call void @llvm.lifetime.start.p0(i64 8, ptr %6) #7
  call void @llvm.lifetime.start.p0(i64 8, ptr %7) #7
  call void @llvm.lifetime.start.p0(i64 8, ptr %8) #7
  call void @llvm.lifetime.start.p0(i64 8, ptr %9) #7
  call void @llvm.lifetime.start.p0(i64 1, ptr %10) #7
  %44 = load ptr, ptr %4, align 8, !tbaa !4
  %45 = call ptr @lean_ctor_get(ptr noundef %44, i32 noundef 0)
  store ptr %45, ptr %6, align 8, !tbaa !4
  %46 = load ptr, ptr %4, align 8, !tbaa !4
  %47 = call ptr @lean_ctor_get(ptr noundef %46, i32 noundef 1)
  store ptr %47, ptr %7, align 8, !tbaa !4
  %48 = load ptr, ptr %5, align 8, !tbaa !4
  %49 = call ptr @lean_ctor_get(ptr noundef %48, i32 noundef 0)
  store ptr %49, ptr %8, align 8, !tbaa !4
  %50 = load ptr, ptr %5, align 8, !tbaa !4
  %51 = call ptr @lean_ctor_get(ptr noundef %50, i32 noundef 1)
  store ptr %51, ptr %9, align 8, !tbaa !4
  %52 = load ptr, ptr %6, align 8, !tbaa !4
  %53 = load ptr, ptr %8, align 8, !tbaa !4
  %54 = call zeroext i8 @lean_string_dec_lt(ptr noundef %52, ptr noundef %53)
  store i8 %54, ptr %10, align 1, !tbaa !12
  %55 = load i8, ptr %10, align 1, !tbaa !12
  %56 = zext i8 %55 to i32
  %57 = icmp eq i32 %56, 0
  br i1 %57, label %58, label %90

58:                                               ; preds = %43
  call void @llvm.lifetime.start.p0(i64 1, ptr %11) #7
  %59 = load ptr, ptr %6, align 8, !tbaa !4
  %60 = load ptr, ptr %8, align 8, !tbaa !4
  %61 = call zeroext i8 @lean_string_dec_eq(ptr noundef %59, ptr noundef %60)
  store i8 %61, ptr %11, align 1, !tbaa !12
  %62 = load i8, ptr %11, align 1, !tbaa !12
  %63 = zext i8 %62 to i32
  %64 = icmp eq i32 %63, 0
  br i1 %64, label %65, label %67

65:                                               ; preds = %58
  call void @llvm.lifetime.start.p0(i64 1, ptr %12) #7
  store i8 2, ptr %12, align 1, !tbaa !12
  %66 = load i8, ptr %12, align 1, !tbaa !12
  store i8 %66, ptr %3, align 1
  store i32 1, ptr %13, align 4
  call void @llvm.lifetime.end.p0(i64 1, ptr %12) #7
  br label %89

67:                                               ; preds = %58
  call void @llvm.lifetime.start.p0(i64 1, ptr %14) #7
  %68 = load ptr, ptr %7, align 8, !tbaa !4
  %69 = load ptr, ptr %9, align 8, !tbaa !4
  %70 = call zeroext i8 @lean_string_dec_lt(ptr noundef %68, ptr noundef %69)
  store i8 %70, ptr %14, align 1, !tbaa !12
  %71 = load i8, ptr %14, align 1, !tbaa !12
  %72 = zext i8 %71 to i32
  %73 = icmp eq i32 %72, 0
  br i1 %73, label %74, label %86

74:                                               ; preds = %67
  call void @llvm.lifetime.start.p0(i64 1, ptr %15) #7
  %75 = load ptr, ptr %7, align 8, !tbaa !4
  %76 = load ptr, ptr %9, align 8, !tbaa !4
  %77 = call zeroext i8 @lean_string_dec_eq(ptr noundef %75, ptr noundef %76)
  store i8 %77, ptr %15, align 1, !tbaa !12
  %78 = load i8, ptr %15, align 1, !tbaa !12
  %79 = zext i8 %78 to i32
  %80 = icmp eq i32 %79, 0
  br i1 %80, label %81, label %83

81:                                               ; preds = %74
  call void @llvm.lifetime.start.p0(i64 1, ptr %16) #7
  store i8 2, ptr %16, align 1, !tbaa !12
  %82 = load i8, ptr %16, align 1, !tbaa !12
  store i8 %82, ptr %3, align 1
  store i32 1, ptr %13, align 4
  call void @llvm.lifetime.end.p0(i64 1, ptr %16) #7
  br label %85

83:                                               ; preds = %74
  call void @llvm.lifetime.start.p0(i64 1, ptr %17) #7
  store i8 1, ptr %17, align 1, !tbaa !12
  %84 = load i8, ptr %17, align 1, !tbaa !12
  store i8 %84, ptr %3, align 1
  store i32 1, ptr %13, align 4
  call void @llvm.lifetime.end.p0(i64 1, ptr %17) #7
  br label %85

85:                                               ; preds = %83, %81
  call void @llvm.lifetime.end.p0(i64 1, ptr %15) #7
  br label %88

86:                                               ; preds = %67
  call void @llvm.lifetime.start.p0(i64 1, ptr %18) #7
  store i8 0, ptr %18, align 1, !tbaa !12
  %87 = load i8, ptr %18, align 1, !tbaa !12
  store i8 %87, ptr %3, align 1
  store i32 1, ptr %13, align 4
  call void @llvm.lifetime.end.p0(i64 1, ptr %18) #7
  br label %88

88:                                               ; preds = %86, %85
  call void @llvm.lifetime.end.p0(i64 1, ptr %14) #7
  br label %89

89:                                               ; preds = %88, %65
  call void @llvm.lifetime.end.p0(i64 1, ptr %11) #7
  br label %92

90:                                               ; preds = %43
  call void @llvm.lifetime.start.p0(i64 1, ptr %19) #7
  store i8 0, ptr %19, align 1, !tbaa !12
  %91 = load i8, ptr %19, align 1, !tbaa !12
  store i8 %91, ptr %3, align 1
  store i32 1, ptr %13, align 4
  call void @llvm.lifetime.end.p0(i64 1, ptr %19) #7
  br label %92

92:                                               ; preds = %90, %89
  call void @llvm.lifetime.end.p0(i64 1, ptr %10) #7
  call void @llvm.lifetime.end.p0(i64 8, ptr %9) #7
  call void @llvm.lifetime.end.p0(i64 8, ptr %8) #7
  call void @llvm.lifetime.end.p0(i64 8, ptr %7) #7
  call void @llvm.lifetime.end.p0(i64 8, ptr %6) #7
  br label %151

93:                                               ; preds = %39
  call void @llvm.lifetime.start.p0(i64 1, ptr %20) #7
  store i8 0, ptr %20, align 1, !tbaa !12
  %94 = load i8, ptr %20, align 1, !tbaa !12
  store i8 %94, ptr %3, align 1
  store i32 1, ptr %13, align 4
  call void @llvm.lifetime.end.p0(i64 1, ptr %20) #7
  br label %151

95:                                               ; preds = %35
  %96 = load ptr, ptr %5, align 8, !tbaa !4
  %97 = call i32 @lean_obj_tag(ptr noundef %96)
  %98 = icmp eq i32 %97, 0
  br i1 %98, label %99, label %101

99:                                               ; preds = %95
  call void @llvm.lifetime.start.p0(i64 1, ptr %21) #7
  store i8 2, ptr %21, align 1, !tbaa !12
  %100 = load i8, ptr %21, align 1, !tbaa !12
  store i8 %100, ptr %3, align 1
  store i32 1, ptr %13, align 4
  call void @llvm.lifetime.end.p0(i64 1, ptr %21) #7
  br label %151

101:                                              ; preds = %95
  call void @llvm.lifetime.start.p0(i64 8, ptr %22) #7
  call void @llvm.lifetime.start.p0(i64 8, ptr %23) #7
  call void @llvm.lifetime.start.p0(i64 8, ptr %24) #7
  call void @llvm.lifetime.start.p0(i64 8, ptr %25) #7
  call void @llvm.lifetime.start.p0(i64 1, ptr %26) #7
  %102 = load ptr, ptr %4, align 8, !tbaa !4
  %103 = call ptr @lean_ctor_get(ptr noundef %102, i32 noundef 0)
  store ptr %103, ptr %22, align 8, !tbaa !4
  %104 = load ptr, ptr %4, align 8, !tbaa !4
  %105 = call ptr @lean_ctor_get(ptr noundef %104, i32 noundef 1)
  store ptr %105, ptr %23, align 8, !tbaa !4
  %106 = load ptr, ptr %5, align 8, !tbaa !4
  %107 = call ptr @lean_ctor_get(ptr noundef %106, i32 noundef 0)
  store ptr %107, ptr %24, align 8, !tbaa !4
  %108 = load ptr, ptr %5, align 8, !tbaa !4
  %109 = call ptr @lean_ctor_get(ptr noundef %108, i32 noundef 1)
  store ptr %109, ptr %25, align 8, !tbaa !4
  %110 = load ptr, ptr %22, align 8, !tbaa !4
  %111 = load ptr, ptr %24, align 8, !tbaa !4
  %112 = call zeroext i8 @lean_string_dec_lt(ptr noundef %110, ptr noundef %111)
  store i8 %112, ptr %26, align 1, !tbaa !12
  %113 = load i8, ptr %26, align 1, !tbaa !12
  %114 = zext i8 %113 to i32
  %115 = icmp eq i32 %114, 0
  br i1 %115, label %116, label %148

116:                                              ; preds = %101
  call void @llvm.lifetime.start.p0(i64 1, ptr %27) #7
  %117 = load ptr, ptr %22, align 8, !tbaa !4
  %118 = load ptr, ptr %24, align 8, !tbaa !4
  %119 = call zeroext i8 @lean_string_dec_eq(ptr noundef %117, ptr noundef %118)
  store i8 %119, ptr %27, align 1, !tbaa !12
  %120 = load i8, ptr %27, align 1, !tbaa !12
  %121 = zext i8 %120 to i32
  %122 = icmp eq i32 %121, 0
  br i1 %122, label %123, label %125

123:                                              ; preds = %116
  call void @llvm.lifetime.start.p0(i64 1, ptr %28) #7
  store i8 2, ptr %28, align 1, !tbaa !12
  %124 = load i8, ptr %28, align 1, !tbaa !12
  store i8 %124, ptr %3, align 1
  store i32 1, ptr %13, align 4
  call void @llvm.lifetime.end.p0(i64 1, ptr %28) #7
  br label %147

125:                                              ; preds = %116
  call void @llvm.lifetime.start.p0(i64 1, ptr %29) #7
  %126 = load ptr, ptr %23, align 8, !tbaa !4
  %127 = load ptr, ptr %25, align 8, !tbaa !4
  %128 = call zeroext i8 @lean_string_dec_lt(ptr noundef %126, ptr noundef %127)
  store i8 %128, ptr %29, align 1, !tbaa !12
  %129 = load i8, ptr %29, align 1, !tbaa !12
  %130 = zext i8 %129 to i32
  %131 = icmp eq i32 %130, 0
  br i1 %131, label %132, label %144

132:                                              ; preds = %125
  call void @llvm.lifetime.start.p0(i64 1, ptr %30) #7
  %133 = load ptr, ptr %23, align 8, !tbaa !4
  %134 = load ptr, ptr %25, align 8, !tbaa !4
  %135 = call zeroext i8 @lean_string_dec_eq(ptr noundef %133, ptr noundef %134)
  store i8 %135, ptr %30, align 1, !tbaa !12
  %136 = load i8, ptr %30, align 1, !tbaa !12
  %137 = zext i8 %136 to i32
  %138 = icmp eq i32 %137, 0
  br i1 %138, label %139, label %141

139:                                              ; preds = %132
  call void @llvm.lifetime.start.p0(i64 1, ptr %31) #7
  store i8 2, ptr %31, align 1, !tbaa !12
  %140 = load i8, ptr %31, align 1, !tbaa !12
  store i8 %140, ptr %3, align 1
  store i32 1, ptr %13, align 4
  call void @llvm.lifetime.end.p0(i64 1, ptr %31) #7
  br label %143

141:                                              ; preds = %132
  call void @llvm.lifetime.start.p0(i64 1, ptr %32) #7
  store i8 1, ptr %32, align 1, !tbaa !12
  %142 = load i8, ptr %32, align 1, !tbaa !12
  store i8 %142, ptr %3, align 1
  store i32 1, ptr %13, align 4
  call void @llvm.lifetime.end.p0(i64 1, ptr %32) #7
  br label %143

143:                                              ; preds = %141, %139
  call void @llvm.lifetime.end.p0(i64 1, ptr %30) #7
  br label %146

144:                                              ; preds = %125
  call void @llvm.lifetime.start.p0(i64 1, ptr %33) #7
  store i8 0, ptr %33, align 1, !tbaa !12
  %145 = load i8, ptr %33, align 1, !tbaa !12
  store i8 %145, ptr %3, align 1
  store i32 1, ptr %13, align 4
  call void @llvm.lifetime.end.p0(i64 1, ptr %33) #7
  br label %146

146:                                              ; preds = %144, %143
  call void @llvm.lifetime.end.p0(i64 1, ptr %29) #7
  br label %147

147:                                              ; preds = %146, %123
  call void @llvm.lifetime.end.p0(i64 1, ptr %27) #7
  br label %150

148:                                              ; preds = %101
  call void @llvm.lifetime.start.p0(i64 1, ptr %34) #7
  store i8 0, ptr %34, align 1, !tbaa !12
  %149 = load i8, ptr %34, align 1, !tbaa !12
  store i8 %149, ptr %3, align 1
  store i32 1, ptr %13, align 4
  call void @llvm.lifetime.end.p0(i64 1, ptr %34) #7
  br label %150

150:                                              ; preds = %148, %147
  call void @llvm.lifetime.end.p0(i64 1, ptr %26) #7
  call void @llvm.lifetime.end.p0(i64 8, ptr %25) #7
  call void @llvm.lifetime.end.p0(i64 8, ptr %24) #7
  call void @llvm.lifetime.end.p0(i64 8, ptr %23) #7
  call void @llvm.lifetime.end.p0(i64 8, ptr %22) #7
  br label %151

151:                                              ; preds = %150, %99, %93, %92
  %152 = load i8, ptr %3, align 1
  ret i8 %152
}