; Function Attrs: nounwind uwtable
define zeroext range(i8 0, 3) i8 @l___private_Lean_Data_Lsp_Internal_0__Lean_Lsp_ordRefIdent____x40_Lean_Data_Lsp_Internal___hyg_232_(ptr noundef %0, ptr noundef %1) local_unnamed_addr #1 {
  %3 = ptrtoint ptr %0 to i64
  %4 = and i64 %3, 1
  %.not.i = icmp eq i64 %4, 0
  br i1 %.not.i, label %8, label %5

5:                                                ; preds = %2
  %6 = lshr i64 %3, 1
  %7 = trunc i64 %6 to i32
  br label %lean_obj_tag.exit

8:                                                ; preds = %2
  %9 = getelementptr i8, ptr %0, i64 4
  %.val.i = load i32, ptr %9, align 4
  %10 = lshr i32 %.val.i, 24
  br label %lean_obj_tag.exit

lean_obj_tag.exit:                                ; preds = %5, %8
  %.0.i = phi i32 [ %7, %5 ], [ %10, %8 ]
  %11 = icmp eq i32 %.0.i, 0
  %12 = ptrtoint ptr %1 to i64
  %13 = and i64 %12, 1
  %.not.i48 = icmp eq i64 %13, 0
  br i1 %11, label %14, label %47

14:                                               ; preds = %lean_obj_tag.exit
  br i1 %.not.i48, label %18, label %15

15:                                               ; preds = %14
  %16 = lshr i64 %12, 1
  %17 = trunc i64 %16 to i32
  br label %lean_obj_tag.exit51

18:                                               ; preds = %14
  %19 = getelementptr i8, ptr %1, i64 4
  %.val.i50 = load i32, ptr %19, align 4
  %20 = lshr i32 %.val.i50, 24
  br label %lean_obj_tag.exit51

lean_obj_tag.exit51:                              ; preds = %15, %18
  %.0.i49 = phi i32 [ %17, %15 ], [ %20, %18 ]
  %21 = icmp eq i32 %.0.i49, 0
  br i1 %21, label %22, label %lean_string_dec_eq.exit.thread

22:                                               ; preds = %lean_obj_tag.exit51
  %23 = getelementptr inbounds nuw i8, ptr %0, i64 8
  %24 = load ptr, ptr %23, align 8, !tbaa !4
  %25 = getelementptr inbounds nuw i8, ptr %0, i64 16
  %26 = load ptr, ptr %25, align 8, !tbaa !4
  %27 = getelementptr inbounds nuw i8, ptr %1, i64 8
  %28 = load ptr, ptr %27, align 8, !tbaa !4
  %29 = getelementptr inbounds nuw i8, ptr %1, i64 16
  %30 = load ptr, ptr %29, align 8, !tbaa !4
  %31 = tail call zeroext i1 @lean_string_lt(ptr noundef %24, ptr noundef %28) #8
  br i1 %31, label %lean_string_dec_eq.exit.thread, label %32

32:                                               ; preds = %22
  %33 = icmp eq ptr %24, %28
  br i1 %33, label %lean_string_dec_eq.exit.thread65, label %34

34:                                               ; preds = %32
  %35 = getelementptr i8, ptr %24, i64 8
  %.val.i.i = load i64, ptr %35, align 8, !tbaa !12
  %36 = getelementptr i8, ptr %28, i64 8
  %.val7.i.i = load i64, ptr %36, align 8, !tbaa !12
  %37 = icmp eq i64 %.val.i.i, %.val7.i.i
  br i1 %37, label %lean_string_dec_eq.exit, label %lean_string_dec_eq.exit.thread

lean_string_dec_eq.exit:                          ; preds = %34
  %38 = tail call zeroext i1 @lean_string_eq_cold(ptr noundef nonnull %24, ptr noundef nonnull %28) #8
  br i1 %38, label %lean_string_dec_eq.exit.thread65, label %lean_string_dec_eq.exit.thread

lean_string_dec_eq.exit.thread65:                 ; preds = %32, %lean_string_dec_eq.exit
  %39 = tail call zeroext i1 @lean_string_lt(ptr noundef %26, ptr noundef %30) #8
  br i1 %39, label %lean_string_dec_eq.exit.thread, label %40

40:                                               ; preds = %lean_string_dec_eq.exit.thread65
  %41 = icmp eq ptr %26, %30
  br i1 %41, label %lean_string_dec_eq.exit.thread, label %42

42:                                               ; preds = %40
  %43 = getelementptr i8, ptr %26, i64 8
  %.val.i.i52 = load i64, ptr %43, align 8, !tbaa !12
  %44 = getelementptr i8, ptr %30, i64 8
  %.val7.i.i53 = load i64, ptr %44, align 8, !tbaa !12
  %45 = icmp eq i64 %.val.i.i52, %.val7.i.i53
  br i1 %45, label %lean_string_dec_eq.exit54, label %lean_string_dec_eq.exit54.thread

lean_string_dec_eq.exit54:                        ; preds = %42
  %46 = tail call zeroext i1 @lean_string_eq_cold(ptr noundef nonnull %26, ptr noundef nonnull %30) #8
  %.fr74 = freeze i1 %46
  br i1 %.fr74, label %lean_string_dec_eq.exit.thread, label %lean_string_dec_eq.exit54.thread

lean_string_dec_eq.exit54.thread:                 ; preds = %42, %lean_string_dec_eq.exit54
  br label %lean_string_dec_eq.exit.thread

47:                                               ; preds = %lean_obj_tag.exit
  br i1 %.not.i48, label %51, label %48

48:                                               ; preds = %47
  %49 = lshr i64 %12, 1
  %50 = trunc i64 %49 to i32
  br label %lean_obj_tag.exit58

51:                                               ; preds = %47
  %52 = getelementptr i8, ptr %1, i64 4
  %.val.i57 = load i32, ptr %52, align 4
  %53 = lshr i32 %.val.i57, 24
  br label %lean_obj_tag.exit58

lean_obj_tag.exit58:                              ; preds = %48, %51
  %.0.i56 = phi i32 [ %50, %48 ], [ %53, %51 ]
  %54 = icmp eq i32 %.0.i56, 0
  br i1 %54, label %lean_string_dec_eq.exit.thread, label %55

55:                                               ; preds = %lean_obj_tag.exit58
  %56 = getelementptr inbounds nuw i8, ptr %0, i64 8
  %57 = load ptr, ptr %56, align 8, !tbaa !4
  %58 = getelementptr inbounds nuw i8, ptr %0, i64 16
  %59 = load ptr, ptr %58, align 8, !tbaa !4
  %60 = getelementptr inbounds nuw i8, ptr %1, i64 8
  %61 = load ptr, ptr %60, align 8, !tbaa !4
  %62 = getelementptr inbounds nuw i8, ptr %1, i64 16
  %63 = load ptr, ptr %62, align 8, !tbaa !4
  %64 = tail call zeroext i1 @lean_string_lt(ptr noundef %57, ptr noundef %61) #8
  br i1 %64, label %lean_string_dec_eq.exit.thread, label %65

65:                                               ; preds = %55
  %66 = icmp eq ptr %57, %61
  br i1 %66, label %lean_string_dec_eq.exit61.thread69, label %67

67:                                               ; preds = %65
  %68 = getelementptr i8, ptr %57, i64 8
  %.val.i.i59 = load i64, ptr %68, align 8, !tbaa !12
  %69 = getelementptr i8, ptr %61, i64 8
  %.val7.i.i60 = load i64, ptr %69, align 8, !tbaa !12
  %70 = icmp eq i64 %.val.i.i59, %.val7.i.i60
  br i1 %70, label %lean_string_dec_eq.exit61, label %lean_string_dec_eq.exit.thread

lean_string_dec_eq.exit61:                        ; preds = %67
  %71 = tail call zeroext i1 @lean_string_eq_cold(ptr noundef nonnull %57, ptr noundef nonnull %61) #8
  br i1 %71, label %lean_string_dec_eq.exit61.thread69, label %lean_string_dec_eq.exit.thread

lean_string_dec_eq.exit61.thread69:               ; preds = %65, %lean_string_dec_eq.exit61
  %72 = tail call zeroext i1 @lean_string_lt(ptr noundef %59, ptr noundef %63) #8
  br i1 %72, label %lean_string_dec_eq.exit.thread, label %73

73:                                               ; preds = %lean_string_dec_eq.exit61.thread69
  %74 = icmp eq ptr %59, %63
  br i1 %74, label %lean_string_dec_eq.exit.thread, label %75

75:                                               ; preds = %73
  %76 = getelementptr i8, ptr %59, i64 8
  %.val.i.i62 = load i64, ptr %76, align 8, !tbaa !12
  %77 = getelementptr i8, ptr %63, i64 8
  %.val7.i.i63 = load i64, ptr %77, align 8, !tbaa !12
  %78 = icmp eq i64 %.val.i.i62, %.val7.i.i63
  br i1 %78, label %lean_string_dec_eq.exit64, label %lean_string_dec_eq.exit64.thread

lean_string_dec_eq.exit64:                        ; preds = %75
  %79 = tail call zeroext i1 @lean_string_eq_cold(ptr noundef nonnull %59, ptr noundef nonnull %63) #8
  %.fr = freeze i1 %79
  br i1 %.fr, label %lean_string_dec_eq.exit.thread, label %lean_string_dec_eq.exit64.thread

lean_string_dec_eq.exit64.thread:                 ; preds = %75, %lean_string_dec_eq.exit64
  br label %lean_string_dec_eq.exit.thread

lean_string_dec_eq.exit.thread:                   ; preds = %73, %67, %40, %34, %lean_string_dec_eq.exit64.thread, %lean_string_dec_eq.exit64, %lean_string_dec_eq.exit54.thread, %lean_string_dec_eq.exit54, %lean_string_dec_eq.exit61.thread69, %lean_string_dec_eq.exit61, %55, %lean_obj_tag.exit58, %lean_obj_tag.exit51, %lean_string_dec_eq.exit.thread65, %lean_string_dec_eq.exit, %22
  %.4 = phi i8 [ 2, %lean_string_dec_eq.exit ], [ 0, %lean_string_dec_eq.exit.thread65 ], [ 0, %22 ], [ 0, %lean_obj_tag.exit51 ], [ 2, %lean_obj_tag.exit58 ], [ 2, %lean_string_dec_eq.exit61 ], [ 0, %lean_string_dec_eq.exit61.thread69 ], [ 0, %55 ], [ 2, %lean_string_dec_eq.exit54.thread ], [ 1, %lean_string_dec_eq.exit54 ], [ 2, %lean_string_dec_eq.exit64.thread ], [ 1, %lean_string_dec_eq.exit64 ], [ 2, %34 ], [ 1, %40 ], [ 2, %67 ], [ 1, %73 ]
  ret i8 %.4
}